; Function Attrs: nounwind uwtable
define ptr @Ivy_CanonAnd(ptr noundef initializes((56, 72)) %0, ptr noundef %1, ptr noundef %2) local_unnamed_addr #0 {
  %4 = getelementptr inbounds nuw i8, ptr %0, i64 48
  %5 = load i32, ptr %4, align 8
  %6 = and i32 %5, -1552
  %7 = or disjoint i32 %6, 5
  store i32 %7, ptr %4, align 8
  %8 = getelementptr inbounds nuw i8, ptr %0, i64 56
  store ptr %1, ptr %8, align 8, !tbaa !3
  %9 = getelementptr inbounds nuw i8, ptr %0, i64 64
  store ptr %2, ptr %9, align 8, !tbaa !10
  %.not.i = icmp eq ptr %2, null
  br i1 %.not.i, label %Ivy_ObjCreateGhost.exit, label %10

10:                                               ; preds = %3
  %.not.i.i = icmp eq ptr %1, null
  br i1 %.not.i.i, label %Ivy_ObjFaninId1.exit.i, label %11

11:                                               ; preds = %10
  %12 = ptrtoint ptr %1 to i64
  %13 = and i64 %12, -2
  %14 = inttoptr i64 %13 to ptr
  %.val.i.i = load i32, ptr %14, align 8, !tbaa !11
  br label %Ivy_ObjFaninId1.exit.i

Ivy_ObjFaninId1.exit.i:                           ; preds = %11, %10
  %15 = phi i32 [ %.val.i.i, %11 ], [ 0, %10 ]
  %16 = ptrtoint ptr %2 to i64
  %17 = and i64 %16, -2
  %18 = inttoptr i64 %17 to ptr
  %.val.i19.i = load i32, ptr %18, align 8, !tbaa !11
  %19 = icmp sgt i32 %15, %.val.i19.i
  br i1 %19, label %20, label %Ivy_ObjCreateGhost.exit

20:                                               ; preds = %Ivy_ObjFaninId1.exit.i
  store ptr %2, ptr %8, align 8, !tbaa !3
  store ptr %1, ptr %9, align 8, !tbaa !10
  br label %Ivy_ObjCreateGhost.exit

Ivy_ObjCreateGhost.exit:                          ; preds = %3, %Ivy_ObjFaninId1.exit.i, %20
  %21 = getelementptr inbounds nuw i8, ptr %0, i64 40
  %22 = tail call ptr @Ivy_CanonPair_rec(ptr noundef nonnull %0, ptr noundef nonnull %21)
  ret ptr %22
}